target datalayout = "e-m:e-p270:32:32-p271:32:32-p272:64:64-i64:64-i128:128-f80:128-n8:16:32:64-S128"
target triple = "x86_64-pc-linux-gnu"

%struct.saucy = type { i32, ptr, ptr, ptr, ptr, %struct.coloring, %struct.coloring, ptr, ptr, ptr, ptr, ptr, i32, i32, ptr, i32, ptr, ptr, ptr, ptr, ptr, ptr, ptr, i32, i32, ptr, i32, ptr, i32, i32, ptr, ptr, ptr, ptr, ptr, ptr, ptr, ptr, ptr, ptr, i32, ptr, ptr, ptr, i32, ptr, i32, ptr, ptr, ptr, ptr, i32, ptr, ptr, i32, ptr, ptr, ptr, ptr, ptr, ptr, ptr, ptr, ptr, ptr, ptr, ptr, ptr, ptr, ptr, ptr, ptr, ptr, ptr, ptr, ptr, ptr, double, i32, i32, i32, ptr, ptr, ptr, ptr }
%struct.coloring = type { ptr, ptr, ptr, ptr }

; Function Attrs: nounwind uwtable
define internal void @set_label(ptr noundef %0, i32 noundef %1, i32 noundef %2) #0 {
  %4 = alloca ptr, align 8
  %5 = alloca i32, align 4
  %6 = alloca i32, align 4
  store ptr %0, ptr %4, align 8
  store i32 %1, ptr %5, align 4
  store i32 %2, ptr %6, align 4
  %7 = load i32, ptr %6, align 4
  %8 = load ptr, ptr %4, align 8
  %9 = getelementptr inbounds %struct.coloring, ptr %8, i32 0, i32 0
  %10 = load ptr, ptr %9, align 8
  %11 = load i32, ptr %5, align 4
  %12 = sext i32 %11 to i64
  %13 = getelementptr inbounds i32, ptr %10, i64 %12
  store i32 %7, ptr %13, align 4
  %14 = load i32, ptr %5, align 4
  %15 = load ptr, ptr %4, align 8
  %16 = getelementptr inbounds %struct.coloring, ptr %15, i32 0, i32 1
  %17 = load ptr, ptr %16, align 8
  %18 = load i32, ptr %6, align 4
  %19 = sext i32 %18 to i64
  %20 = getelementptr inbounds i32, ptr %17, i64 %19
  store i32 %14, ptr %20, align 4
  ret void
}

; Function Attrs: nounwind uwtable
define internal void @insertion_sort(ptr noundef %0, i32 noundef %1) #0 {
  %3 = alloca ptr, align 8
  %4 = alloca i32, align 4
  %5 = alloca i32, align 4
  %6 = alloca i32, align 4
  %7 = alloca i32, align 4
  store ptr %0, ptr %3, align 8
  store i32 %1, ptr %4, align 4
  store i32 1, ptr %5, align 4
  br label %8

8:                                                ; preds = %53, %2
  %9 = load i32, ptr %5, align 4
  %10 = load i32, ptr %4, align 4
  %11 = icmp slt i32 %9, %10
  br i1 %11, label %12, label %56

12:                                               ; preds = %8
  %13 = load ptr, ptr %3, align 8
  %14 = load i32, ptr %5, align 4
  %15 = sext i32 %14 to i64
  %16 = getelementptr inbounds i32, ptr %13, i64 %15
  %17 = load i32, ptr %16, align 4
  store i32 %17, ptr %7, align 4
  %18 = load i32, ptr %5, align 4
  store i32 %18, ptr %6, align 4
  br label %19

19:                                               ; preds = %44, %12
  %20 = load i32, ptr %6, align 4
  %21 = icmp sgt i32 %20, 0
  br i1 %21, label %22, label %31

22:                                               ; preds = %19
  %23 = load ptr, ptr %3, align 8
  %24 = load i32, ptr %6, align 4
  %25 = sub nsw i32 %24, 1
  %26 = sext i32 %25 to i64
  %27 = getelementptr inbounds i32, ptr %23, i64 %26
  %28 = load i32, ptr %27, align 4
  %29 = load i32, ptr %7, align 4
  %30 = icmp sgt i32 %28, %29
  br label %31

31:                                               ; preds = %22, %19
  %32 = phi i1 [ false, %19 ], [ %30, %22 ]
  br i1 %32, label %33, label %47

33:                                               ; preds = %31
  %34 = load ptr, ptr %3, align 8
  %35 = load i32, ptr %6, align 4
  %36 = sub nsw i32 %35, 1
  %37 = sext i32 %36 to i64
  %38 = getelementptr inbounds i32, ptr %34, i64 %37
  %39 = load i32, ptr %38, align 4
  %40 = load ptr, ptr %3, align 8
  %41 = load i32, ptr %6, align 4
  %42 = sext i32 %41 to i64
  %43 = getelementptr inbounds i32, ptr %40, i64 %42
  store i32 %39, ptr %43, align 4
  br label %44

44:                                               ; preds = %33
  %45 = load i32, ptr %6, align 4
  %46 = add nsw i32 %45, -1
  store i32 %46, ptr %6, align 4
  br label %19, !llvm.loop !80

47:                                               ; preds = %31
  %48 = load i32, ptr %7, align 4
  %49 = load ptr, ptr %3, align 8
  %50 = load i32, ptr %6, align 4
  %51 = sext i32 %50 to i64
  %52 = getelementptr inbounds i32, ptr %49, i64 %51
  store i32 %48, ptr %52, align 4
  br label %53

53:                                               ; preds = %47
  %54 = load i32, ptr %5, align 4
  %55 = add nsw i32 %54, 1
  store i32 %55, ptr %5, align 4
  br label %8, !llvm.loop !81

56:                                               ; preds = %8
  ret void
}

; Function Attrs: nounwind uwtable
define internal i32 @log_base2(i32 noundef %0) #0 {
  %2 = alloca i32, align 4
  %3 = alloca i32, align 4
  store i32 %0, ptr %2, align 4
  store i32 0, ptr %3, align 4
  br label %4

4:                                                ; preds = %7, %1
  %5 = load i32, ptr %2, align 4
  %6 = icmp sgt i32 %5, 1
  br i1 %6, label %7, label %12

7:                                                ; preds = %4
  %8 = load i32, ptr %3, align 4
  %9 = add nsw i32 %8, 1
  store i32 %9, ptr %3, align 4
  %10 = load i32, ptr %2, align 4
  %11 = ashr i32 %10, 1
  store i32 %11, ptr %2, align 4
  br label %4, !llvm.loop !79

12:                                               ; preds = %4
  %13 = load i32, ptr %3, align 4
  ret i32 %13
}

; Function Attrs: nounwind uwtable
define internal void @swap_labels(ptr noundef %0, i32 noundef %1, i32 noundef %2) #0 {
  %4 = alloca ptr, align 8
  %5 = alloca i32, align 4
  %6 = alloca i32, align 4
  %7 = alloca i32, align 4
  store ptr %0, ptr %4, align 8
  store i32 %1, ptr %5, align 4
  store i32 %2, ptr %6, align 4
  %8 = load ptr, ptr %4, align 8
  %9 = getelementptr inbounds %struct.coloring, ptr %8, i32 0, i32 0
  %10 = load ptr, ptr %9, align 8
  %11 = load i32, ptr %5, align 4
  %12 = sext i32 %11 to i64
  %13 = getelementptr inbounds i32, ptr %10, i64 %12
  %14 = load i32, ptr %13, align 4
  store i32 %14, ptr %7, align 4
  %15 = load ptr, ptr %4, align 8
  %16 = load i32, ptr %5, align 4
  %17 = load ptr, ptr %4, align 8
  %18 = getelementptr inbounds %struct.coloring, ptr %17, i32 0, i32 0
  %19 = load ptr, ptr %18, align 8
  %20 = load i32, ptr %6, align 4
  %21 = sext i32 %20 to i64
  %22 = getelementptr inbounds i32, ptr %19, i64 %21
  %23 = load i32, ptr %22, align 4
  call void @set_label(ptr noundef %15, i32 noundef %16, i32 noundef %23)
  %24 = load ptr, ptr %4, align 8
  %25 = load i32, ptr %6, align 4
  %26 = load i32, ptr %7, align 4
  call void @set_label(ptr noundef %24, i32 noundef %25, i32 noundef %26)
  ret void
}

; Function Attrs: nounwind uwtable
define internal void @introsort(ptr noundef %0, i32 noundef %1) #0 {
  %3 = alloca ptr, align 8
  %4 = alloca i32, align 4
  store ptr %0, ptr %3, align 8
  store i32 %1, ptr %4, align 4
  %5 = load ptr, ptr %3, align 8
  %6 = load i32, ptr %4, align 4
  %7 = load i32, ptr %4, align 4
  %8 = call i32 @log_base2(i32 noundef %7)
  %9 = mul nsw i32 2, %8
  call void @introsort_loop(ptr noundef %5, i32 noundef %6, i32 noundef %9)
  %10 = load ptr, ptr %3, align 8
  %11 = load i32, ptr %4, align 4
  call void @insertion_sort(ptr noundef %10, i32 noundef %11)
  ret void
}

; Function Attrs: nounwind uwtable
define internal void @move_to_back(ptr noundef %0, ptr noundef %1, i32 noundef %2) #0 {
  %4 = alloca ptr, align 8
  %5 = alloca ptr, align 8
  %6 = alloca i32, align 4
  %7 = alloca i32, align 4
  %8 = alloca i32, align 4
  %9 = alloca i32, align 4
  store ptr %0, ptr %4, align 8
  store ptr %1, ptr %5, align 8
  store i32 %2, ptr %6, align 4
  %10 = load ptr, ptr %5, align 8
  %11 = getelementptr inbounds %struct.coloring, ptr %10, i32 0, i32 2
  %12 = load ptr, ptr %11, align 8
  %13 = load i32, ptr %6, align 4
  %14 = sext i32 %13 to i64
  %15 = getelementptr inbounds i32, ptr %12, i64 %14
  %16 = load i32, ptr %15, align 4
  store i32 %16, ptr %7, align 4
  %17 = load i32, ptr %7, align 4
  %18 = load ptr, ptr %5, align 8
  %19 = getelementptr inbounds %struct.coloring, ptr %18, i32 0, i32 3
  %20 = load ptr, ptr %19, align 8
  %21 = load i32, ptr %7, align 4
  %22 = sext i32 %21 to i64
  %23 = getelementptr inbounds i32, ptr %20, i64 %22
  %24 = load i32, ptr %23, align 4
  %25 = add nsw i32 %17, %24
  store i32 %25, ptr %8, align 4
  %26 = load ptr, ptr %4, align 8
  %27 = getelementptr inbounds %struct.saucy, ptr %26, i32 0, i32 22
  %28 = load ptr, ptr %27, align 8
  %29 = load i32, ptr %7, align 4
  %30 = sext i32 %29 to i64
  %31 = getelementptr inbounds i32, ptr %28, i64 %30
  %32 = load i32, ptr %31, align 4
  %33 = add nsw i32 %32, 1
  store i32 %33, ptr %31, align 4
  store i32 %32, ptr %9, align 4
  %34 = load ptr, ptr %5, align 8
  %35 = load i32, ptr %8, align 4
  %36 = load i32, ptr %9, align 4
  %37 = sub nsw i32 %35, %36
  %38 = load ptr, ptr %5, align 8
  %39 = getelementptr inbounds %struct.coloring, ptr %38, i32 0, i32 1
  %40 = load ptr, ptr %39, align 8
  %41 = load i32, ptr %6, align 4
  %42 = sext i32 %41 to i64
  %43 = getelementptr inbounds i32, ptr %40, i64 %42
  %44 = load i32, ptr %43, align 4
  call void @swap_labels(ptr noundef %34, i32 noundef %37, i32 noundef %44)
  %45 = load i32, ptr %9, align 4
  %46 = icmp ne i32 %45, 0
  br i1 %46, label %58, label %47

47:                                               ; preds = %3
  %48 = load i32, ptr %7, align 4
  %49 = load ptr, ptr %4, align 8
  %50 = getelementptr inbounds %struct.saucy, ptr %49, i32 0, i32 14
  %51 = load ptr, ptr %50, align 8
  %52 = load ptr, ptr %4, align 8
  %53 = getelementptr inbounds %struct.saucy, ptr %52, i32 0, i32 15
  %54 = load i32, ptr %53, align 8
  %55 = add nsw i32 %54, 1
  store i32 %55, ptr %53, align 8
  %56 = sext i32 %54 to i64
  %57 = getelementptr inbounds i32, ptr %51, i64 %56
  store i32 %48, ptr %57, align 4
  br label %58

58:                                               ; preds = %47, %3
  ret void
}

; Function Attrs: nounwind uwtable
define internal i32 @refine_cell(ptr noundef %0, ptr noundef %1, ptr noundef %2) #0 {
  %4 = alloca ptr, align 8
  %5 = alloca ptr, align 8
  %6 = alloca ptr, align 8
  %7 = alloca i32, align 4
  %8 = alloca i32, align 4
  %9 = alloca i32, align 4
  store ptr %0, ptr %4, align 8
  store ptr %1, ptr %5, align 8
  store ptr %2, ptr %6, align 8
  store i32 1, ptr %9, align 4
  %10 = load ptr, ptr %4, align 8
  %11 = getelementptr inbounds %struct.saucy, ptr %10, i32 0, i32 23
  %12 = load i32, ptr %11, align 8
  %13 = icmp sgt i32 %12, 1
  br i1 %13, label %14, label %21

14:                                               ; preds = %3
  %15 = load ptr, ptr %4, align 8
  %16 = getelementptr inbounds %struct.saucy, ptr %15, i32 0, i32 14
  %17 = load ptr, ptr %16, align 8
  %18 = load ptr, ptr %4, align 8
  %19 = getelementptr inbounds %struct.saucy, ptr %18, i32 0, i32 15
  %20 = load i32, ptr %19, align 8
  call void @introsort(ptr noundef %17, i32 noundef %20)
  br label %21

21:                                               ; preds = %14, %3
  store i32 0, ptr %7, align 4
  br label %22

22:                                               ; preds = %46, %21
  %23 = load i32, ptr %9, align 4
  %24 = icmp ne i32 %23, 0
  br i1 %24, label %25, label %31

25:                                               ; preds = %22
  %26 = load i32, ptr %7, align 4
  %27 = load ptr, ptr %4, align 8
  %28 = getelementptr inbounds %struct.saucy, ptr %27, i32 0, i32 15
  %29 = load i32, ptr %28, align 8
  %30 = icmp slt i32 %26, %29
  br label %31

31:                                               ; preds = %25, %22
  %32 = phi i1 [ false, %22 ], [ %30, %25 ]
  br i1 %32, label %33, label %49

33:                                               ; preds = %31
  %34 = load ptr, ptr %4, align 8
  %35 = getelementptr inbounds %struct.saucy, ptr %34, i32 0, i32 14
  %36 = load ptr, ptr %35, align 8
  %37 = load i32, ptr %7, align 4
  %38 = sext i32 %37 to i64
  %39 = getelementptr inbounds i32, ptr %36, i64 %38
  %40 = load i32, ptr %39, align 4
  store i32 %40, ptr %8, align 4
  %41 = load ptr, ptr %6, align 8
  %42 = load ptr, ptr %4, align 8
  %43 = load ptr, ptr %5, align 8
  %44 = load i32, ptr %8, align 4
  %45 = call i32 %41(ptr noundef %42, ptr noundef %43, i32 noundef %44)
  store i32 %45, ptr %9, align 4
  br label %46

46:                                               ; preds = %33
  %47 = load i32, ptr %7, align 4
  %48 = add nsw i32 %47, 1
  store i32 %48, ptr %7, align 4
  br label %22, !llvm.loop !76

49:                                               ; preds = %31
  store i32 0, ptr %7, align 4
  br label %50

50:                                               ; preds = %70, %49
  %51 = load i32, ptr %7, align 4
  %52 = load ptr, ptr %4, align 8
  %53 = getelementptr inbounds %struct.saucy, ptr %52, i32 0, i32 15
  %54 = load i32, ptr %53, align 8
  %55 = icmp slt i32 %51, %54
  br i1 %55, label %56, label %73

56:                                               ; preds = %50
  %57 = load ptr, ptr %4, align 8
  %58 = getelementptr inbounds %struct.saucy, ptr %57, i32 0, i32 14
  %59 = load ptr, ptr %58, align 8
  %60 = load i32, ptr %7, align 4
  %61 = sext i32 %60 to i64
  %62 = getelementptr inbounds i32, ptr %59, i64 %61
  %63 = load i32, ptr %62, align 4
  store i32 %63, ptr %8, align 4
  %64 = load ptr, ptr %4, align 8
  %65 = getelementptr inbounds %struct.saucy, ptr %64, i32 0, i32 22
  %66 = load ptr, ptr %65, align 8
  %67 = load i32, ptr %8, align 4
  %68 = sext i32 %67 to i64
  %69 = getelementptr inbounds i32, ptr %66, i64 %68
  store i32 0, ptr %69, align 4
  br label %70

70:                                               ; preds = %56
  %71 = load i32, ptr %7, align 4
  %72 = add nsw i32 %71, 1
  store i32 %72, ptr %7, align 4
  br label %50, !llvm.loop !77

73:                                               ; preds = %50
  %74 = load ptr, ptr %4, align 8
  %75 = getelementptr inbounds %struct.saucy, ptr %74, i32 0, i32 15
  store i32 0, ptr %75, align 8
  %76 = load i32, ptr %9, align 4
  ret i32 %76
}

; Function Attrs: nounwind uwtable
define internal void @data_mark(ptr noundef %0, ptr noundef %1, i32 noundef %2) #0 {
  %4 = alloca ptr, align 8
  %5 = alloca ptr, align 8
  %6 = alloca i32, align 4
  %7 = alloca i32, align 4
  store ptr %0, ptr %4, align 8
  store ptr %1, ptr %5, align 8
  store i32 %2, ptr %6, align 4
  %8 = load ptr, ptr %5, align 8
  %9 = getelementptr inbounds %struct.coloring, ptr %8, i32 0, i32 2
  %10 = load ptr, ptr %9, align 8
  %11 = load i32, ptr %6, align 4
  %12 = sext i32 %11 to i64
  %13 = getelementptr inbounds i32, ptr %10, i64 %12
  %14 = load i32, ptr %13, align 4
  store i32 %14, ptr %7, align 4
  %15 = load ptr, ptr %5, align 8
  %16 = getelementptr inbounds %struct.coloring, ptr %15, i32 0, i32 3
  %17 = load ptr, ptr %16, align 8
  %18 = load i32, ptr %7, align 4
  %19 = sext i32 %18 to i64
  %20 = getelementptr inbounds i32, ptr %17, i64 %19
  %21 = load i32, ptr %20, align 4
  %22 = icmp ne i32 %21, 0
  br i1 %22, label %23, label %27

23:                                               ; preds = %3
  %24 = load ptr, ptr %4, align 8
  %25 = load ptr, ptr %5, align 8
  %26 = load i32, ptr %6, align 4
  call void @move_to_back(ptr noundef %24, ptr noundef %25, i32 noundef %26)
  br label %27

27:                                               ; preds = %23, %3
  ret void
}

; Function Attrs: nounwind uwtable
define internal i32 @ref_singleton(ptr noundef %0, ptr noundef %1, ptr noundef %2, ptr noundef %3, i32 noundef %4) #0 {
  %6 = alloca ptr, align 8
  %7 = alloca ptr, align 8
  %8 = alloca ptr, align 8
  %9 = alloca ptr, align 8
  %10 = alloca i32, align 4
  %11 = alloca i32, align 4
  %12 = alloca i32, align 4
  store ptr %0, ptr %6, align 8
  store ptr %1, ptr %7, align 8
  store ptr %2, ptr %8, align 8
  store ptr %3, ptr %9, align 8
  store i32 %4, ptr %10, align 4
  %13 = load ptr, ptr %7, align 8
  %14 = getelementptr inbounds %struct.coloring, ptr %13, i32 0, i32 0
  %15 = load ptr, ptr %14, align 8
  %16 = load i32, ptr %10, align 4
  %17 = sext i32 %16 to i64
  %18 = getelementptr inbounds i32, ptr %15, i64 %17
  %19 = load i32, ptr %18, align 4
  store i32 %19, ptr %12, align 4
  %20 = load ptr, ptr %8, align 8
  %21 = load i32, ptr %12, align 4
  %22 = sext i32 %21 to i64
  %23 = getelementptr inbounds i32, ptr %20, i64 %22
  %24 = load i32, ptr %23, align 4
  store i32 %24, ptr %11, align 4
  br label %25

25:                                               ; preds = %42, %5
  %26 = load i32, ptr %11, align 4
  %27 = load ptr, ptr %8, align 8
  %28 = load i32, ptr %12, align 4
  %29 = add nsw i32 %28, 1
  %30 = sext i32 %29 to i64
  %31 = getelementptr inbounds i32, ptr %27, i64 %30
  %32 = load i32, ptr %31, align 4
  %33 = icmp ne i32 %26, %32
  br i1 %33, label %34, label %45

34:                                               ; preds = %25
  %35 = load ptr, ptr %6, align 8
  %36 = load ptr, ptr %7, align 8
  %37 = load ptr, ptr %9, align 8
  %38 = load i32, ptr %11, align 4
  %39 = sext i32 %38 to i64
  %40 = getelementptr inbounds i32, ptr %37, i64 %39
  %41 = load i32, ptr %40, align 4
  call void @data_mark(ptr noundef %35, ptr noundef %36, i32 noundef %41)
  br label %42

42:                                               ; preds = %34
  %43 = load i32, ptr %11, align 4
  %44 = add nsw i32 %43, 1
  store i32 %44, ptr %11, align 4
  br label %25, !llvm.loop !75

45:                                               ; preds = %25
  %46 = load ptr, ptr %6, align 8
  %47 = load ptr, ptr %7, align 8
  %48 = call i32 @refine_cell(ptr noundef %46, ptr noundef %47, ptr noundef @ref_single_cell)
  ret i32 %48
}