; Function Attrs: nounwind uwtable
define internal fastcc i32 @ref_singleton(ptr noundef %0, ptr noundef %1, ptr noundef readonly captures(none) %2, ptr noundef readonly captures(none) %3, i32 noundef %4) unnamed_addr #0 {
  %6 = load ptr, ptr %1, align 8
  %7 = sext i32 %4 to i64
  %8 = getelementptr inbounds i32, ptr %6, i64 %7
  %9 = load i32, ptr %8, align 4
  %10 = sext i32 %9 to i64
  %11 = getelementptr inbounds i32, ptr %2, i64 %10
  %12 = load i32, ptr %11, align 4
  %13 = getelementptr i8, ptr %11, i64 4
  %14 = load i32, ptr %13, align 4
  %.not18 = icmp eq i32 %12, %14
  br i1 %.not18, label %._crit_edge, label %.lr.ph

.lr.ph:                                           ; preds = %5
  %15 = getelementptr inbounds nuw i8, ptr %1, i64 16
  %16 = getelementptr inbounds nuw i8, ptr %1, i64 24
  %17 = getelementptr inbounds nuw i8, ptr %0, i64 216
  %18 = getelementptr inbounds nuw i8, ptr %1, i64 8
  %19 = getelementptr inbounds nuw i8, ptr %0, i64 152
  %20 = getelementptr inbounds nuw i8, ptr %0, i64 160
  %21 = sext i32 %12 to i64
  br label %22

22:                                               ; preds = %.lr.ph, %data_mark.exit
  %indvars.iv = phi i64 [ %21, %.lr.ph ], [ %indvars.iv.next, %data_mark.exit ]
  %23 = getelementptr inbounds i32, ptr %3, i64 %indvars.iv
  %24 = load i32, ptr %23, align 4
  %25 = load ptr, ptr %15, align 8
  %26 = sext i32 %24 to i64
  %27 = getelementptr inbounds i32, ptr %25, i64 %26
  %28 = load i32, ptr %27, align 4
  %29 = load ptr, ptr %16, align 8
  %30 = sext i32 %28 to i64
  %31 = getelementptr inbounds i32, ptr %29, i64 %30
  %32 = load i32, ptr %31, align 4
  %.not.i = icmp eq i32 %32, 0
  br i1 %.not.i, label %data_mark.exit, label %33

33:                                               ; preds = %22
  %34 = add nsw i32 %32, %28
  %35 = load ptr, ptr %17, align 8
  %36 = getelementptr inbounds i32, ptr %35, i64 %30
  %37 = load i32, ptr %36, align 4
  %38 = add nsw i32 %37, 1
  store i32 %38, ptr %36, align 4
  %39 = sub i32 %34, %37
  %40 = load ptr, ptr %18, align 8
  %41 = getelementptr inbounds i32, ptr %40, i64 %26
  %42 = load i32, ptr %41, align 4
  %43 = load ptr, ptr %1, align 8
  %44 = sext i32 %39 to i64
  %45 = getelementptr inbounds i32, ptr %43, i64 %44
  %46 = load i32, ptr %45, align 4
  %47 = sext i32 %42 to i64
  %48 = getelementptr inbounds i32, ptr %43, i64 %47
  %49 = load i32, ptr %48, align 4
  store i32 %49, ptr %45, align 4
  %50 = load ptr, ptr %18, align 8
  %51 = sext i32 %49 to i64
  %52 = getelementptr inbounds i32, ptr %50, i64 %51
  store i32 %39, ptr %52, align 4
  %53 = load ptr, ptr %1, align 8
  %54 = getelementptr inbounds i32, ptr %53, i64 %47
  store i32 %46, ptr %54, align 4
  %55 = load ptr, ptr %18, align 8
  %56 = sext i32 %46 to i64
  %57 = getelementptr inbounds i32, ptr %55, i64 %56
  store i32 %42, ptr %57, align 4
  %.not.i.i = icmp eq i32 %37, 0
  br i1 %.not.i.i, label %58, label %data_mark.exit

58:                                               ; preds = %33
  %59 = load ptr, ptr %19, align 8
  %60 = load i32, ptr %20, align 8
  %61 = add nsw i32 %60, 1
  store i32 %61, ptr %20, align 8
  %62 = sext i32 %60 to i64
  %63 = getelementptr inbounds i32, ptr %59, i64 %62
  store i32 %28, ptr %63, align 4
  br label %data_mark.exit

data_mark.exit:                                   ; preds = %22, %33, %58
  %indvars.iv.next = add nsw i64 %indvars.iv, 1
  %64 = load i32, ptr %13, align 4
  %65 = trunc nsw i64 %indvars.iv.next to i32
  %.not = icmp eq i32 %64, %65
  br i1 %.not, label %._crit_edge, label %22, !llvm.loop !102

._crit_edge:                                      ; preds = %data_mark.exit, %5
  %66 = getelementptr inbounds nuw i8, ptr %0, i64 224
  %67 = load i32, ptr %66, align 8
  %68 = icmp sgt i32 %67, 1
  br i1 %68, label %69, label %introsort.exit.i

69:                                               ; preds = %._crit_edge
  %70 = getelementptr inbounds nuw i8, ptr %0, i64 152
  %71 = load ptr, ptr %70, align 8
  %72 = getelementptr inbounds nuw i8, ptr %0, i64 160
  %73 = load i32, ptr %72, align 8
  %74 = icmp sgt i32 %73, 1
  br i1 %74, label %.lr.ph.i.i.i, label %log_base2.exit.thread.i.i

log_base2.exit.thread.i.i:                        ; preds = %69
  tail call fastcc void @introsort_loop(ptr noundef %71, i32 noundef %73, i32 noundef 0)
  br label %introsort.exit.i

.lr.ph.i.i.i:                                     ; preds = %69, %.lr.ph.i.i.i
  %.06.i.i.i = phi i32 [ %75, %.lr.ph.i.i.i ], [ 0, %69 ]
  %.045.i.i.i = phi i32 [ %76, %.lr.ph.i.i.i ], [ %73, %69 ]
  %75 = add nuw nsw i32 %.06.i.i.i, 1
  %76 = lshr i32 %.045.i.i.i, 1
  %77 = icmp samesign ugt i32 %.045.i.i.i, 3
  br i1 %77, label %.lr.ph.i.i.i, label %log_base2.exit.i.i, !llvm.loop !103

log_base2.exit.i.i:                               ; preds = %.lr.ph.i.i.i
  %78 = shl nuw nsw i32 %75, 1
  tail call fastcc void @introsort_loop(ptr noundef %71, i32 noundef %73, i32 noundef %78)
  %wide.trip.count.i.i.i = zext nneg i32 %73 to i64
  br label %.lr.ph.i4.i.i

.lr.ph.i4.i.i:                                    ; preds = %.critedge.i.i.i, %log_base2.exit.i.i
  %indvars.iv.i.i.i = phi i64 [ 1, %log_base2.exit.i.i ], [ %indvars.iv.next.i.i.i, %.critedge.i.i.i ]
  %79 = getelementptr inbounds nuw i32, ptr %71, i64 %indvars.iv.i.i.i
  %80 = load i32, ptr %79, align 4
  %81 = trunc nuw nsw i64 %indvars.iv.i.i.i to i32
  br label %82

82:                                               ; preds = %88, %.lr.ph.i4.i.i
  %.01719.i.i.i = phi i32 [ %81, %.lr.ph.i4.i.i ], [ %89, %88 ]
  %83 = zext nneg i32 %.01719.i.i.i to i64
  %84 = getelementptr i32, ptr %71, i64 %83
  %85 = getelementptr i8, ptr %84, i64 -4
  %86 = load i32, ptr %85, align 4
  %87 = icmp sgt i32 %86, %80
  br i1 %87, label %88, label %.critedge.i.i.i

88:                                               ; preds = %82
  store i32 %86, ptr %84, align 4
  %89 = add nsw i32 %.01719.i.i.i, -1
  %90 = icmp sgt i32 %.01719.i.i.i, 1
  br i1 %90, label %82, label %.critedge.i.i.i, !llvm.loop !104

.critedge.i.i.i:                                  ; preds = %88, %82
  %.017.lcssa.i.i.i = phi i32 [ 0, %88 ], [ %.01719.i.i.i, %82 ]
  %91 = sext i32 %.017.lcssa.i.i.i to i64
  %92 = getelementptr inbounds i32, ptr %71, i64 %91
  store i32 %80, ptr %92, align 4
  %indvars.iv.next.i.i.i = add nuw nsw i64 %indvars.iv.i.i.i, 1
  %exitcond.not.i.i.i = icmp eq i64 %indvars.iv.next.i.i.i, %wide.trip.count.i.i.i
  br i1 %exitcond.not.i.i.i, label %introsort.exit.i, label %.lr.ph.i4.i.i, !llvm.loop !105

introsort.exit.i:                                 ; preds = %.critedge.i.i.i, %log_base2.exit.thread.i.i, %._crit_edge
  %93 = getelementptr inbounds nuw i8, ptr %0, i64 160
  %94 = getelementptr inbounds nuw i8, ptr %0, i64 152
  %95 = load i32, ptr %93, align 8
  %96 = icmp sgt i32 %95, 0
  br i1 %96, label %.lr.ph21, label %refine_cell.exit

.lr.ph21:                                         ; preds = %introsort.exit.i
  %97 = getelementptr inbounds nuw i8, ptr %1, i64 24
  %98 = getelementptr inbounds nuw i8, ptr %0, i64 216
  %99 = getelementptr inbounds nuw i8, ptr %0, i64 464
  br label %104

ref_single_cell.exit.thread:                      ; preds = %104, %ref_single_cell.exit
  %100 = phi i32 [ %120, %ref_single_cell.exit ], [ 1, %104 ]
  %indvars.iv.next.i = add nuw nsw i64 %indvars.iv.i20, 1
  %101 = load i32, ptr %93, align 8
  %102 = sext i32 %101 to i64
  %103 = icmp slt i64 %indvars.iv.next.i, %102
  br i1 %103, label %104, label %.critedge.i, !llvm.loop !106

104:                                              ; preds = %.lr.ph21, %ref_single_cell.exit.thread
  %indvars.iv.i20 = phi i64 [ 0, %.lr.ph21 ], [ %indvars.iv.next.i, %ref_single_cell.exit.thread ]
  %105 = load ptr, ptr %94, align 8
  %106 = getelementptr inbounds nuw i32, ptr %105, i64 %indvars.iv.i20
  %107 = load i32, ptr %106, align 4
  %108 = load ptr, ptr %97, align 8
  %109 = sext i32 %107 to i64
  %110 = getelementptr inbounds i32, ptr %108, i64 %109
  %111 = load i32, ptr %110, align 4
  %112 = add nsw i32 %111, 1
  %113 = load ptr, ptr %98, align 8
  %114 = getelementptr inbounds i32, ptr %113, i64 %109
  %115 = load i32, ptr %114, align 4
  %116 = icmp eq i32 %112, %115
  br i1 %116, label %ref_single_cell.exit.thread, label %ref_single_cell.exit

ref_single_cell.exit:                             ; preds = %104
  %117 = add i32 %112, %107
  %118 = sub i32 %117, %115
  %119 = load ptr, ptr %99, align 8
  %120 = tail call i32 %119(ptr noundef nonnull %0, ptr noundef nonnull %1, i32 noundef %107, i32 noundef %118) #24
  %.not.i13 = icmp eq i32 %120, 0
  br i1 %.not.i13, label %..critedge_crit_edge.i, label %ref_single_cell.exit.thread, !llvm.loop !106

..critedge_crit_edge.i:                           ; preds = %ref_single_cell.exit
  %.pre.i = load i32, ptr %93, align 8
  br label %.critedge.i

.critedge.i:                                      ; preds = %ref_single_cell.exit.thread, %..critedge_crit_edge.i
  %121 = phi i32 [ %.pre.i, %..critedge_crit_edge.i ], [ %101, %ref_single_cell.exit.thread ]
  %.0.lcssa.i = phi i32 [ 0, %..critedge_crit_edge.i ], [ %100, %ref_single_cell.exit.thread ]
  %122 = icmp sgt i32 %121, 0
  br i1 %122, label %.lr.ph.i, label %refine_cell.exit

.lr.ph.i:                                         ; preds = %.critedge.i
  %123 = getelementptr inbounds nuw i8, ptr %0, i64 216
  br label %124

124:                                              ; preds = %124, %.lr.ph.i
  %indvars.iv27.i = phi i64 [ 0, %.lr.ph.i ], [ %indvars.iv.next28.i, %124 ]
  %125 = load ptr, ptr %94, align 8
  %126 = getelementptr inbounds nuw i32, ptr %125, i64 %indvars.iv27.i
  %127 = load i32, ptr %126, align 4
  %128 = load ptr, ptr %123, align 8
  %129 = sext i32 %127 to i64
  %130 = getelementptr inbounds i32, ptr %128, i64 %129
  store i32 0, ptr %130, align 4
  %indvars.iv.next28.i = add nuw nsw i64 %indvars.iv27.i, 1
  %131 = load i32, ptr %93, align 8
  %132 = sext i32 %131 to i64
  %133 = icmp slt i64 %indvars.iv.next28.i, %132
  br i1 %133, label %124, label %refine_cell.exit, !llvm.loop !107

refine_cell.exit:                                 ; preds = %124, %introsort.exit.i, %.critedge.i
  %.0.lcssa.i28 = phi i32 [ %.0.lcssa.i, %.critedge.i ], [ 1, %introsort.exit.i ], [ %.0.lcssa.i, %124 ]
  store i32 0, ptr %93, align 8
  ret i32 %.0.lcssa.i28
}